; Function Attrs: mustprogress uwtable
define noundef nonnull align 8 dereferenceable(56) ptr @_ZN32pxrInternal_v0_24__pxrReserved__14PcpMapFunction8IdentityEv() local_unnamed_addr #0 align 2 personality ptr @__gxx_personality_v0 {
  %1 = load atomic i8, ptr @_ZGVZN32pxrInternal_v0_24__pxrReserved__14PcpMapFunction8IdentityEvE20_identityMapFunction acquire, align 8
  %2 = icmp eq i8 %1, 0
  br i1 %2, label %3, label %8, !prof !8

3:                                                ; preds = %0
  %4 = tail call i32 @__cxa_guard_acquire(ptr nonnull @_ZGVZN32pxrInternal_v0_24__pxrReserved__14PcpMapFunction8IdentityEvE20_identityMapFunction) #22
  %.not = icmp eq i32 %4, 0
  br i1 %.not, label %8, label %5

5:                                                ; preds = %3
  %6 = invoke noundef ptr @_ZN32pxrInternal_v0_24__pxrReserved__16Pcp_MakeIdentityEv()
          to label %7 unwind label %10

7:                                                ; preds = %5
  store ptr %6, ptr @_ZZN32pxrInternal_v0_24__pxrReserved__14PcpMapFunction8IdentityEvE20_identityMapFunction, align 8
  tail call void @__cxa_guard_release(ptr nonnull @_ZGVZN32pxrInternal_v0_24__pxrReserved__14PcpMapFunction8IdentityEvE20_identityMapFunction) #22
  br label %8

8:                                                ; preds = %7, %3, %0
  %9 = load ptr, ptr @_ZZN32pxrInternal_v0_24__pxrReserved__14PcpMapFunction8IdentityEvE20_identityMapFunction, align 8
  ret ptr %9

10:                                               ; preds = %5
  %11 = landingpad { ptr, i32 }
          cleanup
  tail call void @__cxa_guard_abort(ptr nonnull @_ZGVZN32pxrInternal_v0_24__pxrReserved__14PcpMapFunction8IdentityEvE20_identityMapFunction) #22
  resume { ptr, i32 } %11
}